; Function Attrs: nounwind uwtable
define void @ossl_quic_channel_set_msg_callback(ptr noundef captures(none) initializes((1072, 1080), (1088, 1096)) %0, ptr noundef %1, ptr noundef %2) local_unnamed_addr #0 {
  %4 = getelementptr inbounds nuw i8, ptr %0, i64 1072
  store ptr %1, ptr %4, align 8, !tbaa !250
  %5 = getelementptr inbounds nuw i8, ptr %0, i64 1088
  store ptr %2, ptr %5, align 8, !tbaa !251
  %6 = getelementptr inbounds nuw i8, ptr %0, i64 1056
  %7 = load ptr, ptr %6, align 8, !tbaa !72
  tail call void @ossl_qtx_set_msg_callback(ptr noundef %7, ptr noundef %1, ptr noundef %2) #15
  %8 = getelementptr inbounds nuw i8, ptr %0, i64 216
  %9 = load ptr, ptr %8, align 8, !tbaa !109
  tail call void @ossl_quic_tx_packetiser_set_msg_callback(ptr noundef %9, ptr noundef %1, ptr noundef %2) #15
  %10 = getelementptr inbounds nuw i8, ptr %0, i64 1064
  %11 = load ptr, ptr %10, align 8, !tbaa !116
  tail call void @ossl_qrx_set_msg_callback(ptr noundef %11, ptr noundef %1, ptr noundef %2) #15
  ret void
}